target datalayout = "e-m:e-p270:32:32-p271:32:32-p272:64:64-i64:64-i128:128-f80:128-n8:16:32:64-S128"
target triple = "x86_64-pc-linux-gnu"

%struct.Vec_Str_t_ = type { i32, i32, ptr }

; Function Attrs: inlinehint nounwind uwtable
define internal i32 @Vec_StrSize(ptr noundef %0) #7 {
  %2 = alloca ptr, align 8
  store ptr %0, ptr %2, align 8, !tbaa !36
  %3 = load ptr, ptr %2, align 8, !tbaa !36
  %4 = getelementptr inbounds nuw %struct.Vec_Str_t_, ptr %3, i32 0, i32 1
  %5 = load i32, ptr %4, align 4, !tbaa !43
  ret i32 %5
}

; Function Attrs: inlinehint nounwind uwtable
define internal ptr @Vec_StrArray(ptr noundef %0) #7 {
  %2 = alloca ptr, align 8
  store ptr %0, ptr %2, align 8, !tbaa !36
  %3 = load ptr, ptr %2, align 8, !tbaa !36
  %4 = getelementptr inbounds nuw %struct.Vec_Str_t_, ptr %3, i32 0, i32 2
  %5 = load ptr, ptr %4, align 8, !tbaa !41
  ret ptr %5
}

; Function Attrs: nounwind uwtable
define i32 @Vec_StrGets(ptr noundef %0, i32 noundef %1, ptr noundef %2, ptr noundef %3) #0 {
  %5 = alloca i32, align 4
  %6 = alloca ptr, align 8
  %7 = alloca i32, align 4
  %8 = alloca ptr, align 8
  %9 = alloca ptr, align 8
  %10 = alloca ptr, align 8
  %11 = alloca ptr, align 8
  %12 = alloca ptr, align 8
  %13 = alloca i32, align 4
  store ptr %0, ptr %6, align 8, !tbaa !8
  store i32 %1, ptr %7, align 4, !tbaa !10
  store ptr %2, ptr %8, align 8, !tbaa !36
  store ptr %3, ptr %9, align 8, !tbaa !38
  call void @llvm.lifetime.start.p0(i64 8, ptr %10) #9
  call void @llvm.lifetime.start.p0(i64 8, ptr %11) #9
  %14 = load ptr, ptr %8, align 8, !tbaa !36
  %15 = call ptr @Vec_StrArray(ptr noundef %14)
  %16 = load ptr, ptr %9, align 8, !tbaa !38
  %17 = load i32, ptr %16, align 4, !tbaa !10
  %18 = sext i32 %17 to i64
  %19 = getelementptr inbounds i8, ptr %15, i64 %18
  store ptr %19, ptr %11, align 8, !tbaa !8
  call void @llvm.lifetime.start.p0(i64 8, ptr %12) #9
  %20 = load ptr, ptr %8, align 8, !tbaa !36
  %21 = call ptr @Vec_StrArray(ptr noundef %20)
  %22 = load ptr, ptr %8, align 8, !tbaa !36
  %23 = call i32 @Vec_StrSize(ptr noundef %22)
  %24 = sext i32 %23 to i64
  %25 = getelementptr inbounds i8, ptr %21, i64 %24
  store ptr %25, ptr %12, align 8, !tbaa !8
  %26 = load ptr, ptr %11, align 8, !tbaa !8
  %27 = load ptr, ptr %12, align 8, !tbaa !8
  %28 = icmp eq ptr %26, %27
  br i1 %28, label %29, label %31

29:                                               ; preds = %4
  %30 = load ptr, ptr %6, align 8, !tbaa !8
  store i8 0, ptr %30, align 1, !tbaa !26
  store i32 0, ptr %5, align 4
  store i32 1, ptr %13, align 4
  br label %103

31:                                               ; preds = %4
  %32 = load ptr, ptr %11, align 8, !tbaa !8
  store ptr %32, ptr %10, align 8, !tbaa !8
  br label %33

33:                                               ; preds = %99, %31
  %34 = load ptr, ptr %10, align 8, !tbaa !8
  %35 = load ptr, ptr %12, align 8, !tbaa !8
  %36 = icmp ult ptr %34, %35
  br i1 %36, label %37, label %102

37:                                               ; preds = %33
  %38 = load ptr, ptr %10, align 8, !tbaa !8
  %39 = load i8, ptr %38, align 1, !tbaa !26
  %40 = load ptr, ptr %6, align 8, !tbaa !8
  %41 = getelementptr inbounds nuw i8, ptr %40, i32 1
  store ptr %41, ptr %6, align 8, !tbaa !8
  store i8 %39, ptr %40, align 1, !tbaa !26
  %42 = load ptr, ptr %10, align 8, !tbaa !8
  %43 = load i8, ptr %42, align 1, !tbaa !26
  %44 = sext i8 %43 to i32
  %45 = icmp eq i32 %44, 0
  br i1 %45, label %46, label %57

46:                                               ; preds = %37
  %47 = load ptr, ptr %10, align 8, !tbaa !8
  %48 = load ptr, ptr %11, align 8, !tbaa !8
  %49 = ptrtoint ptr %47 to i64
  %50 = ptrtoint ptr %48 to i64
  %51 = sub i64 %49, %50
  %52 = load ptr, ptr %9, align 8, !tbaa !38
  %53 = load i32, ptr %52, align 4, !tbaa !10
  %54 = sext i32 %53 to i64
  %55 = add nsw i64 %54, %51
  %56 = trunc i64 %55 to i32
  store i32 %56, ptr %52, align 4, !tbaa !10
  store i32 0, ptr %5, align 4
  store i32 1, ptr %13, align 4
  br label %103

57:                                               ; preds = %37
  %58 = load ptr, ptr %10, align 8, !tbaa !8
  %59 = load i8, ptr %58, align 1, !tbaa !26
  %60 = sext i8 %59 to i32
  %61 = icmp eq i32 %60, 10
  br i1 %61, label %62, label %75

62:                                               ; preds = %57
  %63 = load ptr, ptr %10, align 8, !tbaa !8
  %64 = load ptr, ptr %11, align 8, !tbaa !8
  %65 = ptrtoint ptr %63 to i64
  %66 = ptrtoint ptr %64 to i64
  %67 = sub i64 %65, %66
  %68 = add nsw i64 %67, 1
  %69 = load ptr, ptr %9, align 8, !tbaa !38
  %70 = load i32, ptr %69, align 4, !tbaa !10
  %71 = sext i32 %70 to i64
  %72 = add nsw i64 %71, %68
  %73 = trunc i64 %72 to i32
  store i32 %73, ptr %69, align 4, !tbaa !10
  %74 = load ptr, ptr %6, align 8, !tbaa !8
  store i8 0, ptr %74, align 1, !tbaa !26
  store i32 1, ptr %5, align 4
  store i32 1, ptr %13, align 4
  br label %103

75:                                               ; preds = %57
  %76 = load ptr, ptr %10, align 8, !tbaa !8
  %77 = load ptr, ptr %11, align 8, !tbaa !8
  %78 = ptrtoint ptr %76 to i64
  %79 = ptrtoint ptr %77 to i64
  %80 = sub i64 %78, %79
  %81 = load i32, ptr %7, align 4, !tbaa !10
  %82 = sub nsw i32 %81, 1
  %83 = sext i32 %82 to i64
  %84 = icmp eq i64 %80, %83
  br i1 %84, label %85, label %98

85:                                               ; preds = %75
  %86 = load ptr, ptr %10, align 8, !tbaa !8
  %87 = load ptr, ptr %11, align 8, !tbaa !8
  %88 = ptrtoint ptr %86 to i64
  %89 = ptrtoint ptr %87 to i64
  %90 = sub i64 %88, %89
  %91 = add nsw i64 %90, 1
  %92 = load ptr, ptr %9, align 8, !tbaa !38
  %93 = load i32, ptr %92, align 4, !tbaa !10
  %94 = sext i32 %93 to i64
  %95 = add nsw i64 %94, %91
  %96 = trunc i64 %95 to i32
  store i32 %96, ptr %92, align 4, !tbaa !10
  %97 = load ptr, ptr %6, align 8, !tbaa !8
  store i8 0, ptr %97, align 1, !tbaa !26
  store i32 1, ptr %5, align 4
  store i32 1, ptr %13, align 4
  br label %103

98:                                               ; preds = %75
  br label %99

99:                                               ; preds = %98
  %100 = load ptr, ptr %10, align 8, !tbaa !8
  %101 = getelementptr inbounds nuw i8, ptr %100, i32 1
  store ptr %101, ptr %10, align 8, !tbaa !8
  br label %33, !llvm.loop !40

102:                                              ; preds = %33
  store i32 0, ptr %5, align 4
  store i32 1, ptr %13, align 4
  br label %103

103:                                              ; preds = %102, %85, %62, %46, %29
  call void @llvm.lifetime.end.p0(i64 8, ptr %12) #9
  call void @llvm.lifetime.end.p0(i64 8, ptr %11) #9
  call void @llvm.lifetime.end.p0(i64 8, ptr %10) #9
  %104 = load i32, ptr %5, align 4
  ret i32 %104
}