; Function Attrs: nofree norecurse nosync nounwind memory(read, argmem: readwrite, inaccessiblemem: none) uwtable
define range(i32 0, 2) i32 @Vec_StrGets(ptr noundef writeonly captures(none) %0, i32 noundef %1, ptr noundef readonly captures(none) %2, ptr noundef captures(none) %3) local_unnamed_addr #8 {
  %5 = getelementptr i8, ptr %2, i64 8
  %.val = load ptr, ptr %5, align 8, !tbaa !33
  %6 = load i32, ptr %3, align 4, !tbaa !24
  %7 = sext i32 %6 to i64
  %8 = getelementptr inbounds i8, ptr %.val, i64 %7
  %9 = getelementptr i8, ptr %2, i64 4
  %.val36 = load i32, ptr %9, align 4, !tbaa !35
  %10 = sext i32 %.val36 to i64
  %11 = getelementptr inbounds i8, ptr %.val, i64 %10
  %12 = icmp eq i32 %6, %.val36
  br i1 %12, label %17, label %.preheader

.preheader:                                       ; preds = %4
  %13 = icmp slt i32 %6, %.val36
  br i1 %13, label %.lr.ph, label %.loopexit

.lr.ph:                                           ; preds = %.preheader
  %14 = ptrtoint ptr %8 to i64
  %15 = add i32 %1, -1
  %16 = sext i32 %15 to i64
  br label %18

17:                                               ; preds = %4
  store i8 0, ptr %0, align 1, !tbaa !21
  br label %.loopexit

18:                                               ; preds = %.lr.ph, %37
  %.02944 = phi ptr [ %0, %.lr.ph ], [ %20, %37 ]
  %.03043 = phi ptr [ %8, %.lr.ph ], [ %38, %37 ]
  %19 = load i8, ptr %.03043, align 1, !tbaa !21
  %20 = getelementptr inbounds nuw i8, ptr %.02944, i64 1
  store i8 %19, ptr %.02944, align 1, !tbaa !21
  %21 = ptrtoint ptr %.03043 to i64
  %22 = sub i64 %21, %14
  switch i8 %19, label %32 [
    i8 0, label %23
    i8 10, label %27
  ]

23:                                               ; preds = %18
  %24 = load i32, ptr %3, align 4, !tbaa !24
  %25 = trunc i64 %22 to i32
  %26 = add i32 %24, %25
  store i32 %26, ptr %3, align 4, !tbaa !24
  br label %.loopexit

27:                                               ; preds = %18
  %28 = load i32, ptr %3, align 4, !tbaa !24
  %29 = trunc i64 %22 to i32
  %30 = add i32 %29, 1
  %31 = add i32 %30, %28
  store i32 %31, ptr %3, align 4, !tbaa !24
  store i8 0, ptr %20, align 1, !tbaa !21
  br label %.loopexit

32:                                               ; preds = %18
  %33 = icmp eq i64 %22, %16
  br i1 %33, label %34, label %37

34:                                               ; preds = %32
  %35 = load i32, ptr %3, align 4, !tbaa !24
  %36 = add i32 %1, %35
  store i32 %36, ptr %3, align 4, !tbaa !24
  store i8 0, ptr %20, align 1, !tbaa !21
  br label %.loopexit

37:                                               ; preds = %32
  %38 = getelementptr inbounds nuw i8, ptr %.03043, i64 1
  %39 = icmp ult ptr %38, %11
  br i1 %39, label %18, label %.loopexit, !llvm.loop !36

.loopexit:                                        ; preds = %37, %.preheader, %34, %27, %23, %17
  %.0 = phi i32 [ 0, %17 ], [ 0, %23 ], [ 1, %27 ], [ 1, %34 ], [ 0, %.preheader ], [ 0, %37 ]
  ret i32 %.0
}